target datalayout = "e-m:e-p270:32:32-p271:32:32-p272:64:64-i64:64-i128:128-f80:128-n8:16:32:64-S128"
target triple = "x86_64-pc-linux-gnu"

%struct.ZSTD_customMem = type { ptr, ptr, ptr }
%struct.ZSTD_frameParameters = type { i32, i32, i32 }
%struct.ZSTD_compressionParameters = type { i32, i32, i32, i32, i32, i32, i32 }
%struct.ZSTD_CCtx_s = type { i32, i32, i32, %struct.ZSTD_CCtx_params_s, %struct.ZSTD_CCtx_params_s, %struct.ZSTD_CCtx_params_s, i32, i64, %struct.ZSTD_cwksp, i64, i64, i64, i64, %struct.XXH64_state_s, %struct.ZSTD_customMem, ptr, i64, %struct.SeqCollector, i32, i32, %struct.SeqStore_t, %struct.ldmState_t, ptr, i64, %struct.RawSeqStore_t, %struct.ZSTD_blockState_t, ptr, i64, i32, ptr, i64, i64, i64, i64, ptr, i64, i64, i64, i32, i32, %struct.ZSTD_inBuffer_s, i64, i64, %struct.ZSTD_localDict, ptr, %struct.ZSTD_prefixDict_s, ptr, i64, %struct.ZSTD_blockSplitCtx, ptr, i64 }
%struct.ZSTD_CCtx_params_s = type { i32, %struct.ZSTD_compressionParameters, %struct.ZSTD_frameParameters, i32, i32, i64, i32, i32, i32, i32, i64, i32, i32, %struct.ldmParams_t, i32, i32, i32, i32, i32, i32, i32, i64, i32, i32, %struct.ZSTD_customMem, i32, i32, ptr, ptr, i32 }
%struct.ldmParams_t = type { i32, i32, i32, i32, i32, i32 }
%struct.ZSTD_cwksp = type { ptr, ptr, ptr, ptr, ptr, ptr, ptr, i8, i32, i32, i32 }
%struct.XXH64_state_s = type { i64, [4 x i64], [4 x i64], i32, i32, i64 }
%struct.SeqCollector = type { i32, ptr, i64, i64 }
%struct.SeqStore_t = type { ptr, ptr, ptr, ptr, ptr, ptr, ptr, i64, i64, i32, i32 }
%struct.ldmState_t = type { %struct.ZSTD_window_t, ptr, i32, ptr, [64 x i64], [64 x %struct.ldmMatchCandidate_t] }
%struct.ZSTD_window_t = type { ptr, ptr, ptr, i32, i32, i32 }
%struct.ldmMatchCandidate_t = type { ptr, i32, i32, ptr }
%struct.RawSeqStore_t = type { ptr, i64, i64, i64, i64 }
%struct.ZSTD_blockState_t = type { ptr, ptr, %struct.ZSTD_MatchState_t }
%struct.ZSTD_MatchState_t = type { %struct.ZSTD_window_t, i32, i32, i32, i32, ptr, [8 x i32], i64, i32, ptr, ptr, ptr, i32, i32, %struct.optState_t, ptr, %struct.ZSTD_compressionParameters, ptr, i32, i32 }
%struct.optState_t = type { ptr, ptr, ptr, ptr, ptr, ptr, i32, i32, i32, i32, i32, i32, i32, i32, i32, ptr, i32 }
%struct.ZSTD_inBuffer_s = type { ptr, i64, i64 }
%struct.ZSTD_localDict = type { ptr, ptr, i64, i32, ptr }
%struct.ZSTD_prefixDict_s = type { ptr, i64, i32 }
%struct.ZSTD_blockSplitCtx = type { %struct.SeqStore_t, %struct.SeqStore_t, %struct.SeqStore_t, %struct.SeqStore_t, %struct.SeqStore_t, [196 x i32], %struct.ZSTD_entropyCTablesMetadata_t }
%struct.ZSTD_entropyCTablesMetadata_t = type { %struct.ZSTD_hufCTablesMetadata_t, %struct.ZSTD_fseCTablesMetadata_t }
%struct.ZSTD_hufCTablesMetadata_t = type { i32, [128 x i8], i64 }
%struct.ZSTD_fseCTablesMetadata_t = type { i32, i32, i32, [133 x i8], i64, i64 }

; Function Attrs: nounwind uwtable
define internal void @inBuffer_forEndFlush(ptr dead_on_unwind noalias writable sret(%struct.ZSTD_inBuffer_s) align 8 %0, ptr noundef %1) #0 {
  %3 = alloca ptr, align 8
  %4 = alloca %struct.ZSTD_inBuffer_s, align 8
  %5 = alloca i32, align 4
  store ptr %1, ptr %3, align 8, !tbaa !11
  call void @llvm.lifetime.start.p0(i64 24, ptr %4) #15
  call void @llvm.memset.p0.i64(ptr align 8 %4, i8 0, i64 24, i1 false)
  call void @llvm.lifetime.start.p0(i64 4, ptr %5) #15
  %6 = load ptr, ptr %3, align 8, !tbaa !11
  %7 = getelementptr inbounds nuw %struct.ZSTD_CCtx_s, ptr %6, i32 0, i32 4
  %8 = getelementptr inbounds nuw %struct.ZSTD_CCtx_params_s, ptr %7, i32 0, i32 15
  %9 = load i32, ptr %8, align 4, !tbaa !304
  %10 = icmp eq i32 %9, 1
  %11 = zext i1 %10 to i32
  store i32 %11, ptr %5, align 4, !tbaa !53
  %12 = load i32, ptr %5, align 4, !tbaa !53
  %13 = icmp ne i32 %12, 0
  br i1 %13, label %14, label %17

14:                                               ; preds = %2
  %15 = load ptr, ptr %3, align 8, !tbaa !11
  %16 = getelementptr inbounds nuw %struct.ZSTD_CCtx_s, ptr %15, i32 0, i32 40
  call void @llvm.memcpy.p0.p0.i64(ptr align 8 %0, ptr align 8 %16, i64 24, i1 false), !tbaa.struct !296
  br label %18

17:                                               ; preds = %2
  call void @llvm.memcpy.p0.p0.i64(ptr align 8 %0, ptr align 8 %4, i64 24, i1 false), !tbaa.struct !296
  br label %18

18:                                               ; preds = %17, %14
  call void @llvm.lifetime.end.p0(i64 4, ptr %5) #15
  call void @llvm.lifetime.end.p0(i64 24, ptr %4) #15
  ret void
}

; Function Attrs: nounwind uwtable
define i64 @ZSTD_flushStream(ptr noundef %0, ptr noundef %1) #0 {
  %3 = alloca ptr, align 8
  %4 = alloca ptr, align 8
  %5 = alloca %struct.ZSTD_inBuffer_s, align 8
  store ptr %0, ptr %3, align 8, !tbaa !11
  store ptr %1, ptr %4, align 8, !tbaa !283
  call void @llvm.lifetime.start.p0(i64 24, ptr %5) #15
  %6 = load ptr, ptr %3, align 8, !tbaa !11
  call void @inBuffer_forEndFlush(ptr dead_on_unwind writable sret(%struct.ZSTD_inBuffer_s) align 8 %5, ptr noundef %6)
  %7 = getelementptr inbounds nuw %struct.ZSTD_inBuffer_s, ptr %5, i32 0, i32 2
  %8 = load i64, ptr %7, align 8, !tbaa !290
  %9 = getelementptr inbounds nuw %struct.ZSTD_inBuffer_s, ptr %5, i32 0, i32 1
  store i64 %8, ptr %9, align 8, !tbaa !291
  %10 = load ptr, ptr %3, align 8, !tbaa !11
  %11 = load ptr, ptr %4, align 8, !tbaa !283
  %12 = call i64 @ZSTD_compressStream2(ptr noundef %10, ptr noundef %11, ptr noundef %5, i32 noundef 1)
  call void @llvm.lifetime.end.p0(i64 24, ptr %5) #15
  ret i64 %12
}