; Function Attrs: nounwind uwtable
define i64 @ZSTD_flushStream(ptr noundef %0, ptr noundef %1) local_unnamed_addr #2 {
  %3 = alloca %struct.ZSTD_inBuffer_s, align 8
  call void @llvm.lifetime.start.p0(i64 24, ptr nonnull %3) #28
  tail call void @llvm.experimental.noalias.scope.decl(metadata !361)
  %4 = getelementptr inbounds nuw i8, ptr %0, i64 364
  %5 = load i32, ptr %4, align 4, !tbaa !321, !noalias !361
  %6 = icmp eq i32 %5, 1
  br i1 %6, label %7, label %9

7:                                                ; preds = %2
  %8 = getelementptr inbounds nuw i8, ptr %0, i64 3648
  call void @llvm.memcpy.p0.p0.i64(ptr noundef nonnull align 8 dereferenceable(24) %3, ptr noundef nonnull readonly align 8 dereferenceable(24) %8, i64 24, i1 false), !tbaa.struct !326
  %.phi.trans.insert = getelementptr inbounds nuw i8, ptr %3, i64 16
  %.pre = load i64, ptr %.phi.trans.insert, align 8, !tbaa !208
  br label %inBuffer_forEndFlush.exit

9:                                                ; preds = %2
  call void @llvm.memset.p0.i64(ptr noundef nonnull align 8 dereferenceable(24) %3, i8 0, i64 24, i1 false), !alias.scope !361
  br label %inBuffer_forEndFlush.exit

inBuffer_forEndFlush.exit:                        ; preds = %7, %9
  %10 = phi i64 [ %.pre, %7 ], [ 0, %9 ]
  %11 = getelementptr inbounds nuw i8, ptr %3, i64 8
  store i64 %10, ptr %11, align 8, !tbaa !207
  %12 = call i64 @ZSTD_compressStream2(ptr noundef nonnull %0, ptr noundef %1, ptr noundef nonnull %3, i32 noundef 1)
  call void @llvm.lifetime.end.p0(i64 24, ptr nonnull %3) #28
  ret i64 %12
}